target datalayout = "e-m:e-p270:32:32-p271:32:32-p272:64:64-i64:64-i128:128-f80:128-n8:16:32:64-S128"
target triple = "x86_64-pc-linux-gnu"

%"struct.ODDLParser::DataArrayList" = type { i64, ptr, ptr, ptr, i64 }

@_ZN10ODDLParser9ReferenceD1Ev = hidden unnamed_addr alias void (ptr), ptr @_ZN10ODDLParser9ReferenceD2Ev
@_ZN10ODDLParser13DataArrayListD1Ev = hidden unnamed_addr alias void (ptr), ptr @_ZN10ODDLParser13DataArrayListD2Ev

; Function Attrs: mustprogress nounwind uwtable
define hidden void @_ZN10ODDLParser13DataArrayListD2Ev(ptr noundef nonnull align 8 dereferenceable(40) %0) unnamed_addr #1 align 2 {
  %2 = alloca ptr, align 8
  store ptr %0, ptr %2, align 8
  %3 = load ptr, ptr %2, align 8
  %4 = getelementptr inbounds nuw %"struct.ODDLParser::DataArrayList", ptr %3, i32 0, i32 1
  %5 = load ptr, ptr %4, align 8
  %6 = icmp eq ptr %5, null
  br i1 %6, label %8, label %7

7:                                                ; preds = %1
  call void @_ZN10ODDLParser5ValueD1Ev(ptr noundef nonnull align 8 dereferenceable(32) %5) #10
  call void @_ZdlPvm(ptr noundef %5, i64 noundef 32) #12
  br label %8

8:                                                ; preds = %7, %1
  %9 = getelementptr inbounds nuw %"struct.ODDLParser::DataArrayList", ptr %3, i32 0, i32 2
  %10 = load ptr, ptr %9, align 8
  %11 = icmp ne ptr %10, null
  br i1 %11, label %12, label %18

12:                                               ; preds = %8
  %13 = getelementptr inbounds nuw %"struct.ODDLParser::DataArrayList", ptr %3, i32 0, i32 2
  %14 = load ptr, ptr %13, align 8
  %15 = icmp eq ptr %14, null
  br i1 %15, label %17, label %16

16:                                               ; preds = %12
  call void @_ZN10ODDLParser13DataArrayListD1Ev(ptr noundef nonnull align 8 dereferenceable(40) %14) #10
  call void @_ZdlPvm(ptr noundef %14, i64 noundef 40) #12
  br label %17

17:                                               ; preds = %16, %12
  br label %18

18:                                               ; preds = %17, %8
  %19 = getelementptr inbounds nuw %"struct.ODDLParser::DataArrayList", ptr %3, i32 0, i32 3
  %20 = load ptr, ptr %19, align 8
  %21 = icmp ne ptr %20, null
  br i1 %21, label %22, label %28

22:                                               ; preds = %18
  %23 = getelementptr inbounds nuw %"struct.ODDLParser::DataArrayList", ptr %3, i32 0, i32 3
  %24 = load ptr, ptr %23, align 8
  %25 = icmp eq ptr %24, null
  br i1 %25, label %27, label %26

26:                                               ; preds = %22
  call void @_ZN10ODDLParser9ReferenceD1Ev(ptr noundef nonnull align 8 dereferenceable(16) %24) #10
  call void @_ZdlPvm(ptr noundef %24, i64 noundef 16) #12
  br label %27

27:                                               ; preds = %26, %22
  br label %28

28:                                               ; preds = %27, %18
  ret void
}