; Function Attrs: mustprogress nounwind uwtable
define hidden void @_ZN10ODDLParser13DataArrayListD2Ev(ptr noundef nonnull readonly align 8 captures(none) dereferenceable(40) %0) unnamed_addr #1 align 2 personality ptr @__gxx_personality_v0 {
  %2 = getelementptr inbounds nuw i8, ptr %0, i64 8
  %3 = load ptr, ptr %2, align 8
  %4 = icmp eq ptr %3, null
  br i1 %4, label %6, label %5

5:                                                ; preds = %1
  tail call void @_ZN10ODDLParser5ValueD1Ev(ptr noundef nonnull align 8 dereferenceable(32) %3) #12
  tail call void @_ZdlPvm(ptr noundef nonnull %3, i64 noundef 32) #13
  br label %6

6:                                                ; preds = %5, %1
  %7 = getelementptr inbounds nuw i8, ptr %0, i64 16
  %8 = load ptr, ptr %7, align 8
  %.not = icmp eq ptr %8, null
  br i1 %.not, label %10, label %9

9:                                                ; preds = %6
  tail call void @_ZN10ODDLParser13DataArrayListD2Ev(ptr noundef nonnull align 8 dereferenceable(40) %8) #12
  tail call void @_ZdlPvm(ptr noundef nonnull %8, i64 noundef 40) #13
  br label %10

10:                                               ; preds = %9, %6
  %11 = getelementptr inbounds nuw i8, ptr %0, i64 24
  %12 = load ptr, ptr %11, align 8
  %.not3 = icmp eq ptr %12, null
  br i1 %.not3, label %39, label %13

13:                                               ; preds = %10
  %14 = load i64, ptr %12, align 8
  %.not.i = icmp eq i64 %14, 0
  br i1 %.not.i, label %._crit_edge.i, label %.lr.ph.i

.lr.ph.i:                                         ; preds = %13
  %15 = getelementptr inbounds nuw i8, ptr %12, i64 8
  br label %19

._crit_edge.i:                                    ; preds = %34, %13
  store i64 0, ptr %12, align 8
  %16 = getelementptr inbounds nuw i8, ptr %12, i64 8
  %17 = load ptr, ptr %16, align 8
  %18 = icmp eq ptr %17, null
  br i1 %18, label %_ZN10ODDLParser9ReferenceD2Ev.exit, label %38

19:                                               ; preds = %34, %.lr.ph.i
  %20 = phi i64 [ %14, %.lr.ph.i ], [ %35, %34 ]
  %.05.i = phi i64 [ 0, %.lr.ph.i ], [ %36, %34 ]
  %21 = load ptr, ptr %15, align 8
  %22 = getelementptr inbounds nuw ptr, ptr %21, i64 %.05.i
  %23 = load ptr, ptr %22, align 8
  %24 = icmp eq ptr %23, null
  br i1 %24, label %34, label %25

25:                                               ; preds = %19
  %26 = getelementptr inbounds nuw i8, ptr %23, i64 8
  %27 = load ptr, ptr %26, align 8
  %28 = icmp eq ptr %27, null
  br i1 %28, label %_ZN10ODDLParser4NameD2Ev.exit.i, label %29

29:                                               ; preds = %25
  %30 = getelementptr inbounds nuw i8, ptr %27, i64 16
  %31 = load ptr, ptr %30, align 8
  %32 = icmp eq ptr %31, null
  br i1 %32, label %_ZN10ODDLParser4TextD2Ev.exit.i.i, label %33

33:                                               ; preds = %29
  tail call void @_ZdaPv(ptr noundef nonnull %31) #13
  br label %_ZN10ODDLParser4TextD2Ev.exit.i.i

_ZN10ODDLParser4TextD2Ev.exit.i.i:                ; preds = %33, %29
  tail call void @_ZdlPvm(ptr noundef nonnull %27, i64 noundef 24) #13
  br label %_ZN10ODDLParser4NameD2Ev.exit.i

_ZN10ODDLParser4NameD2Ev.exit.i:                  ; preds = %_ZN10ODDLParser4TextD2Ev.exit.i.i, %25
  tail call void @_ZdlPvm(ptr noundef nonnull %23, i64 noundef 16) #13
  %.pre.i = load i64, ptr %12, align 8
  br label %34

34:                                               ; preds = %_ZN10ODDLParser4NameD2Ev.exit.i, %19
  %35 = phi i64 [ %20, %19 ], [ %.pre.i, %_ZN10ODDLParser4NameD2Ev.exit.i ]
  %36 = add nuw i64 %.05.i, 1
  %37 = icmp ult i64 %36, %35
  br i1 %37, label %19, label %._crit_edge.i, !llvm.loop !6

38:                                               ; preds = %._crit_edge.i
  tail call void @_ZdaPv(ptr noundef nonnull %17) #13
  br label %_ZN10ODDLParser9ReferenceD2Ev.exit

_ZN10ODDLParser9ReferenceD2Ev.exit:               ; preds = %._crit_edge.i, %38
  tail call void @_ZdlPvm(ptr noundef nonnull %12, i64 noundef 16) #13
  br label %39

39:                                               ; preds = %_ZN10ODDLParser9ReferenceD2Ev.exit, %10
  ret void
}